; Function Attrs: mustprogress nofree nounwind willreturn memory(read) uwtable
define noundef ptr @_ZNK19OpenColorIO_v2_5dev7Context19getStringVarByIndexEi(ptr noundef nonnull readonly align 8 captures(none) dereferenceable(8) %0, i32 noundef %1) local_unnamed_addr #14 align 2 {
  %3 = icmp slt i32 %1, 0
  br i1 %3, label %16, label %4

4:                                                ; preds = %2
  %5 = load ptr, ptr %0, align 8, !tbaa !61
  %6 = getelementptr inbounds nuw i8, ptr %5, i64 136
  %7 = load i64, ptr %6, align 8, !tbaa !60
  %8 = trunc i64 %7 to i32
  %.not = icmp slt i32 %1, %8
  br i1 %.not, label %9, label %16

9:                                                ; preds = %4
  %10 = getelementptr inbounds nuw i8, ptr %5, i64 120
  %11 = load ptr, ptr %10, align 8, !tbaa !58
  %.not11 = icmp eq i32 %1, 0
  br i1 %.not11, label %._crit_edge, label %.lr.ph

._crit_edge:                                      ; preds = %.lr.ph, %9
  %.sroa.0.0.lcssa = phi ptr [ %11, %9 ], [ %14, %.lr.ph ]
  %12 = getelementptr inbounds nuw i8, ptr %.sroa.0.0.lcssa, i64 64
  %13 = load ptr, ptr %12, align 8, !tbaa !66
  br label %16

.lr.ph:                                           ; preds = %9, %.lr.ph
  %.010 = phi i32 [ %15, %.lr.ph ], [ 0, %9 ]
  %.sroa.0.09 = phi ptr [ %14, %.lr.ph ], [ %11, %9 ]
  %14 = tail call noundef ptr @_ZSt18_Rb_tree_incrementPKSt18_Rb_tree_node_base(ptr noundef %.sroa.0.09) #31
  %15 = add nuw nsw i32 %.010, 1
  %exitcond.not = icmp eq i32 %15, %1
  br i1 %exitcond.not, label %._crit_edge, label %.lr.ph, !llvm.loop !105

16:                                               ; preds = %2, %4, %._crit_edge
  %.06 = phi ptr [ %13, %._crit_edge ], [ @.str.5, %4 ], [ @.str.5, %2 ]
  ret ptr %.06
}